(lp1
(lp2
I1
aI1
aI1
aI1
aI1
aI1
aI1
aI1
aI0
aI0
aa(lp3
I1
aI1
aI1
aI0
aI0
aI0
aI0
aI0
aI0
aI0
aa(lp4
I1
aI1
aI0
aI0
aI0
aI0
aI0
aI0
aI0
aI0
aa(lp5
I1
aI0
aI0
aI0
aI0
aI0
aI0
aI0
aI0
aI0
aa(lp6
I1
aI1
aI1
aI1
aI1
aI0
aI0
aI0
aI0
aI0
aag4
ag6
a(lp7
I1
aI1
aI1
aI1
aI1
aI1
aI1
aI1
aI1
aI1
aa(lp8
I1
aI1
aI1
aI1
aI1
aI1
aI0
aI0
aI0
aI0
aag7
ag5
a(lp9
I1
aI1
aI1
aI1
aI1
aI1
aI1
aI0
aI0
aI0
aag7
ag5
ag4
ag8
ag7
ag2
a(lp10
I1
aI1
aI1
aI1
aI0
aI0
aI0
aI0
aI0
aI0
aag6
ag7
ag9
ag9
ag8
ag6
ag5
ag2
ag6
ag5
ag4
ag10
ag4
ag10
ag6
ag2
ag3
ag2
ag4
ag3
ag4
ag4
ag2
ag6
ag3
ag10
ag8
ag4
ag3
ag6
ag6
ag9
ag10
ag8
ag8
ag9
ag5
ag6
ag4
ag7
ag8
ag2
a(lp11
I1
aI1
aI1
aI1
aI1
aI1
aI1
aI1
aI1
aI0
aag7
ag10
ag2
ag6
ag9
ag6
ag10
ag5
ag2
ag5
ag3
ag7
ag4
ag2
ag10
ag3
ag7
ag2
ag2
ag9
ag3
ag2
ag11
ag6
ag2
ag10
ag9
ag4
ag10
ag9
ag7
ag10
ag4
ag6
ag4
ag2
ag9
ag7
ag9
ag5
ag8
ag6
ag7
ag7
ag3
ag4
ag7
ag6
ag11
ag2
ag10
ag7
ag2
ag6
ag6
ag6
ag7
ag3
ag8
ag6
ag2
ag9
ag2
ag7
ag5
ag8
ag11
ag8
ag9
ag9
ag8
ag2
ag11
ag4
ag5
ag4
ag9
ag6
ag9
ag2
ag10
ag4
ag2
ag4
ag11
ag3
ag5
ag3
ag7
ag7
ag8
ag8
ag4
ag8
ag9
ag5
ag10
ag6
ag6
ag9
ag8
ag6
ag9
ag8
ag6
ag8
ag4
ag6
ag6
ag2
ag3
ag10
ag3
ag2
ag4
ag11
ag4
ag11
ag4
ag11
ag8
ag5
ag11
ag7
ag3
ag8
ag5
ag4
ag4
ag4
ag5
ag7
ag5
ag10
ag4
ag9
ag6
ag3
ag10
ag9
ag4
ag4
ag4
ag10
ag7
ag8
ag3
ag7
ag6
ag8
ag7
ag10
ag7
ag5
ag10
ag9
ag8
ag8
ag2
ag3
ag3
ag2
ag4
ag3
ag11
ag6
ag4
ag2
ag10
ag10
ag11
ag11
ag2
ag7
ag3
ag3
ag6
ag4
ag8
ag7
ag11
ag2
ag3
ag10
ag5
ag6
ag6
ag3
ag6
ag4
ag7
ag8
ag2
ag2
ag3
ag11
ag3
ag9
ag11
ag8
ag2
ag2
ag7
ag4
ag11
ag4
ag11
ag5
ag10
ag5
ag4
ag7
ag7
ag6
ag4
ag11
ag3
ag4
ag3
ag7
ag2
ag8
ag7
ag3
ag9
ag6
ag4
ag8
ag11
ag3
ag7
ag3
ag5
ag6
ag5
ag5
ag3
ag11
ag6
ag2
ag4
ag3
ag6
ag5
ag3
ag2
ag6
ag10
ag10
ag5
ag5
ag10
ag4
ag7
ag9
ag8
ag3
ag8
ag7
ag3
ag7
ag10
ag5
ag6
ag3
ag5
ag2
ag4
ag4
ag3
ag4
ag8
ag10
ag10
ag7
ag2
ag11
ag9
ag8
ag9
ag4
ag10
ag11
ag4
ag5
ag8
ag4
ag10
ag4
ag8
ag8
ag9
ag4
ag11
ag8
ag4
ag2
ag7
ag6
ag9
ag3
ag3
ag8
ag5
ag9
ag8
ag9
ag10
ag2
ag3
ag5
ag11
ag11
ag8
ag6
ag4
ag4
ag6
ag5
ag10
ag10
ag2
ag9
ag4
ag9
ag3
ag4
ag7
ag3
ag11
ag9
ag4
ag7
ag8
ag3
ag8
ag6
ag6
ag3
ag11
ag10
ag11
ag3
ag6
ag8
ag5
ag10
ag4
ag2
ag2
ag8
ag2
ag7
ag2
ag4
ag7
ag3
ag4
ag6
ag3
ag7
ag3
ag5
ag6
ag7
ag4
ag6
ag11
ag4
ag11
ag6
ag8
ag7
ag11
ag11
ag10
ag2
ag9
ag5
ag5
ag10
ag5
ag3
ag9
ag9
ag6
ag7
ag10
ag10
ag10
ag3
ag10
ag7
ag4
ag3
ag9
ag11
ag5
ag8
ag9
ag9
ag9
ag10
ag11
ag11
ag3
ag2
ag8
ag11
ag7
ag9
ag4
ag11
ag6
ag4
ag3
ag8
ag7
ag4
ag7
ag2
ag8
ag6
ag5
ag11
ag7
ag7
ag4
ag5
ag8
ag3
ag10
ag2
ag11
ag7
ag6
ag5
ag9
ag10
ag7
ag8
ag3
ag4
ag10
ag4
ag10
ag9
ag8
ag2
ag6
ag3
ag3
ag9
ag10
ag3
ag9
ag8
ag6
ag11
ag7
ag2
ag4
ag10
ag5
ag10
ag11
ag10
ag4
ag7
ag10
ag6
ag6
ag9
ag6
ag3
ag4
ag11
ag3
ag8
ag6
ag11
ag11
ag6
ag5
ag5
ag3
ag10
ag3
ag2
ag2
ag5
ag11
ag2
ag6
ag6
ag2
ag7
ag9
ag7
ag5
ag7
ag11
ag5
ag6
ag9
ag5
ag9
ag10
ag8
ag6
ag11
ag10
ag10
ag7
ag10
ag10
ag10
ag2
ag11
ag5
ag11
ag3
ag4
ag2
ag5
ag9
ag8
ag6
ag10
ag11
ag5
ag7
ag9
ag10
ag11
ag5
ag7
ag7
ag9
ag11
ag9
ag11
ag8
ag2
ag11
ag9
ag5
ag3
ag6
ag5
ag3
ag3
ag10
ag4
ag7
ag2
ag8
ag4
ag5
ag11
ag6
ag9
ag3
ag9
ag2
ag7
ag10
ag3
ag7
ag11
ag3
ag3
ag7
ag3
ag2
ag10
ag8
ag7
ag4
ag11
ag5
ag3
ag5
ag8
ag3
ag4
ag10
ag2
ag9
ag2
ag4
ag3
ag8
ag11
ag5
ag10
ag2
ag3
ag6
ag5
ag7
ag4
ag11
ag9
ag2
ag2
ag6
ag10
ag6
ag7
ag4
ag7
ag8
ag4
ag2
ag10
ag7
ag2
ag9
ag7
ag4
ag10
ag2
ag11
ag10
ag10
ag9
ag2
ag3
ag11
ag8
ag11
ag8
ag4
ag4
ag6
ag6
ag10
ag4
ag5
ag2
ag2
ag5
ag2
ag7
ag6
ag6
ag11
ag8
ag8
ag6
ag5
ag11
ag3
ag4
ag5
ag11
ag6
ag8
ag5
ag6
ag5
ag9
ag4
ag2
ag10
ag3
ag9
ag2
ag3
ag9
ag7
ag10
ag4
ag6
ag9
ag3
ag8
ag6
ag3
ag5
ag9
ag3
ag4
ag2
ag10
ag6
ag4
ag5
ag8
ag6
ag10
ag4
ag4
ag2
ag6
ag7
ag7
ag6
ag11
ag6
ag5
ag3
ag6
ag8
ag4
ag4
ag9
ag6
ag2
ag4
ag7
ag6
ag3
ag6
ag4
ag8
ag8
ag10
ag11
ag10
ag4
ag6
ag8
ag9
ag11
ag7
ag6
ag4
ag8
ag10
ag11
ag5
ag10
ag3
ag8
ag4
ag3
ag11
ag10
ag6
ag6
ag5
ag11
ag11
ag10
ag10
ag4
ag2
ag10
ag8
ag7
ag9
ag10
ag3
ag9
ag4
ag10
ag9
ag5
ag2
ag3
ag4
ag2
ag4
ag6
ag3
ag6
ag3
ag4
ag2
ag7
ag9
ag4
ag4
ag3
ag6
ag11
ag4
ag2
ag2
ag6
ag11
ag5
ag2
ag10
ag4
ag10
ag4
ag5
ag2
ag2
ag5
ag10
ag8
ag8
ag3
ag2
ag9
ag9
ag7
ag3
ag11
ag10
ag8
ag3
ag3
ag8
ag9
ag5
ag11
ag3
ag7
ag3
ag11
ag11
ag11
ag11
ag2
ag6
ag7
ag10
ag5
ag9
ag9
ag10
ag3
ag4
ag10
ag3
ag3
ag7
ag10
ag5
ag5
ag8
ag2
ag11
ag4
ag6
ag6
ag9
ag5
ag3
ag7
ag4
ag6
ag2
ag6
ag2
ag10
ag7
ag11
ag11
ag6
ag2
ag4
ag3
ag4
ag3
ag3
ag10
ag3
ag10
ag3
ag10
ag7
ag4
ag2
ag6
ag5
ag10
ag8
ag8
ag11
ag9
ag10
ag3
ag9
ag2
ag9
ag9
ag10
ag3
ag2
ag11
ag4
ag4
ag2
ag8
ag9
ag6
ag7
ag8
ag4
ag10
ag10
ag6
ag2
ag11
ag7
ag4
ag4
ag9
ag7
ag4
ag6
ag6
ag8
ag6
ag5
ag9
ag3
ag3
ag10
ag4
ag8
ag4
ag3
ag5
ag10
ag11
ag4
ag3
ag9
ag2
ag4
ag9
ag3
ag10
ag7
ag5
ag4
ag3
ag3
ag5
ag11
ag7
ag7
ag5
ag3
ag8
ag4
ag7
ag2
ag11
ag4
ag5
ag6
ag4
ag2
ag7
ag9
ag6
ag3
ag9
ag11
ag4
ag10
ag2
ag8
ag6
ag6
ag4
ag11
ag4
ag10
ag11
ag4
ag3
ag8
ag11
ag5
ag9
ag3
ag4
ag4
ag2
ag4
ag8
ag10
ag6
ag9
ag7
ag8
ag5
ag7
ag3
ag3
ag6
ag11
ag3
ag4
ag2
ag3
ag6
ag7
ag6
ag6
ag5
ag10
ag7
ag3
ag3
ag10
ag10
ag11
ag10
ag8
ag2
ag10
ag8
ag11
ag4
ag3
ag6
ag6
ag9
ag6
ag7
ag8
ag4
ag5
ag9
ag7
ag8
ag7
ag8
ag7
ag2
ag10
ag11
ag5
ag10
ag2
ag4
ag10
ag9
ag2
ag11
ag8
ag7
ag2
ag7
ag9
ag7
ag9
ag10
ag2
ag6
ag6
ag8
ag10
ag8
ag6
ag2
ag11
ag2
ag11
ag5
ag2
ag9
ag11
ag11
ag2
ag10
ag10
ag4
ag7
ag8
ag3
ag2
ag10
ag8
ag4
ag4
ag3
ag4
ag6
ag2
ag6
ag2
ag8
ag6
ag8
ag6
ag5
ag11
ag10
ag9
ag7
ag9
ag5
ag3
ag2
ag6
ag6
ag6
ag6
ag9
ag9
ag6
ag2
ag7
ag10
ag6
ag8
ag8
ag11
ag2
ag10
ag2
ag3
ag2
ag5
ag3
ag6
ag4
ag4
ag9
ag9
ag7
ag3
ag11
ag2
ag3
ag5
ag4
ag8
ag5
ag7
ag4
ag2
ag5
ag9
ag5
ag11
ag9
ag11
ag4
ag11
ag5
ag10
ag10
ag2
ag3
ag10
ag9
ag3
ag4
ag9
ag4
ag4
ag10
ag2
ag7
ag5
ag11
ag5
ag8
ag6
ag5
ag3
ag11
ag2
ag3
ag7
ag11
ag6
ag5
ag7
ag8
ag11
ag8
ag4
ag3
ag4
ag10
ag4
ag2
ag6
ag8
ag2
ag3
ag5
ag7
ag11
ag11
ag9
ag3
ag8
ag6
ag4
ag7
ag3
ag4
ag8
ag11
ag2
ag5
ag3
ag6
ag6
ag10
ag9
ag11
ag11
ag3
ag6
ag5
ag8
ag5
ag6
ag6
ag2
ag7
ag10
ag6
ag4
ag8
ag7
ag2
ag10
ag8
ag11
ag11
ag5
ag8
ag10
ag10
ag9
ag9
ag5
ag4
ag9
ag5
ag10
ag8
ag6
ag6
ag4
ag3
ag7
ag4
ag6
ag9
ag7
ag7
ag10
ag7
ag11
ag6
ag6
ag10
ag4
ag10
ag4
ag11
ag11
ag2
ag7
ag6
ag11
ag11
ag2
ag7
ag2
ag4
ag6
ag8
ag9
ag5
ag8
ag3
ag3
ag3
ag4
ag8
ag8
ag3
ag6
ag7
ag9
ag3
ag2
ag2
ag3
ag3
ag4
ag4
ag3
ag11
ag10
ag2
ag3
ag6
ag4
ag2
ag4
ag2
ag9
ag2
ag11
ag3
ag2
ag10
ag4
ag2
ag8
ag11
ag3
ag9
ag3
ag3
ag8
ag9
ag8
ag5
ag7
ag3
ag6
ag10
ag10
ag7
ag2
ag9
ag9
ag11
ag5
ag6
ag4
ag8
ag11
ag3
ag7
ag4
ag11
ag5
ag9
ag2
ag3
ag4
ag5
ag8
ag8
ag3
ag5
ag3
ag3
ag5
ag3
ag6
ag7
ag11
ag5
ag7
ag7
ag6
ag9
ag8
ag6
ag7
ag4
ag11
ag10
ag6
ag7
ag7
ag4
ag3
ag3
ag11
ag4
ag7
ag9
ag6
ag5
ag7
ag6
ag11
ag10
ag11
ag9
ag5
ag3
ag8
ag4
ag7
ag9
ag3
ag7
ag6
ag5
ag7
ag9
ag5
ag9
ag3
ag8
ag6
ag3
ag10
ag11
ag6
ag8
ag8
ag5
ag10
ag11
ag8
ag10
ag8
ag11
ag9
ag8
ag2
ag9
ag10
ag10
ag7
ag9
ag4
ag4
ag3
ag7
ag5
ag6
ag10
ag10
ag9
ag7
ag8
ag2
ag10
ag2
ag2
ag2
ag11
ag2
ag7
ag11
ag10
ag5
ag2
ag3
ag2
ag7
ag6
ag8
ag6
ag7
ag10
ag3
ag4
ag6
ag5
ag3
ag10
ag2
ag8
ag2
ag11
ag11
ag8
ag5
ag4
ag4
ag6
ag11
ag10
ag7
ag5
ag5
ag5
ag9
ag9
ag3
ag10
ag2
ag11
ag6
ag2
ag2
ag7
ag3
ag6
ag4
ag6
ag8
ag3
ag6
ag7
ag7
ag4
ag11
ag6
ag5
ag7
ag11
ag6
ag11
ag2
ag2
ag5
ag2
ag11
ag11
ag9
ag5
ag6
ag11
ag11
ag3
ag6
ag2
ag9
ag9
ag9
ag6
ag2
ag4
ag11
ag11
ag3
ag10
ag9
ag10
ag5
ag5
ag10
ag2
ag9
ag7
ag2
ag7
ag7
ag8
ag6
ag10
ag10
ag9
ag4
ag3
ag10
ag2
ag10
ag10
ag3
ag5
ag10
ag10
ag11
ag6
ag10
ag9
ag10
ag8
ag5
ag3
ag5
ag7
ag5
ag2
ag6
ag9
ag7
ag10
ag8
ag4
ag7
ag9
ag4
ag6
ag8
ag6
ag8
ag5
ag8
ag7
ag8
ag3
ag4
ag3
ag7
ag4
ag7
ag7
ag6
ag5
ag11
ag6
ag8
ag3
ag7
ag3
ag4
ag3
ag4
ag2
ag10
ag9
ag11
ag11
ag6
ag7
ag4
ag7
ag11
ag8
ag2
ag8
ag4
ag4
ag11
ag9
ag8
ag3
ag6
ag6
ag10
ag3
ag10
ag8
ag9
ag11
ag11
ag9
ag3
ag10
ag4
ag5
ag8
ag11
ag7
ag3
ag7
ag9
ag2
ag5
ag6
ag11
ag2
ag4
ag2
ag6
ag4
ag5
ag7
ag2
ag3
ag5
ag5
ag7
ag4
ag2
ag11
ag2
ag11
ag6
ag2
ag3
ag5
ag6
ag9
ag5
ag10
ag4
ag4
ag10
ag10
ag7
ag9
ag2
ag6
ag4
ag8
ag10
ag5
ag11
ag2
ag10
ag7
ag9
ag7
ag10
ag8
ag5
ag3
ag2
ag6
ag8
ag4
ag2
ag8
ag11
ag5
ag11
ag11
ag4
ag8
ag5
ag10
ag5
ag10
ag4
ag6
ag5
ag10
ag2
ag3
ag2
ag4
ag11
ag5
ag2
ag5
ag6
ag10
ag4
ag7
ag11
ag2
ag2
ag4
ag6
ag7
ag7
ag10
ag3
ag4
ag2
ag7
ag5
ag3
ag5
ag10
ag10
ag2
ag9
ag7
ag3
ag10
ag10
ag2
ag2
ag5
ag5
ag2
ag8
ag3
ag7
ag11
ag2
ag6
ag6
ag3
ag9
ag9
ag4
ag7
ag9
ag11
ag3
ag7
ag5
ag11
ag10
ag4
ag4
ag9
ag10
ag8
ag4
ag4
ag4
ag10
ag4
ag3
ag10
ag5
ag3
ag5
ag4
ag10
ag8
ag8
ag2
ag6
ag11
ag7
ag9
ag7
ag9
ag11
ag10
ag9
ag9
ag11
ag8
ag4
ag6
ag3
ag6
ag6
ag8
ag4
ag4
ag7
ag5
ag3
ag6
ag7
ag8
ag2
ag4
ag11
ag11
ag8
ag9
ag7
ag11
ag2
ag4
ag4
ag9
ag2
ag9
ag10
ag3
ag3
ag5
ag11
ag7
ag3
ag8
ag4
ag5
ag11
ag4
ag7
ag8
ag2
ag7
ag9
ag7
ag5
ag9
ag4
ag8
ag8
ag11
ag10
ag11
ag3
ag9
ag8
ag5
ag2
ag6
ag9
ag4
ag10
ag6
ag2
ag10
ag3
ag10
ag6
ag3
ag8
ag3
ag2
ag4
ag2
ag3
ag9
ag6
ag4
ag8
ag2
ag11
ag9
ag5
ag4
ag11
ag3
ag8
ag2
ag2
ag9
ag7
ag10
ag8
ag11
ag6
ag3
ag6
ag5
ag11
ag11
ag10
ag6
ag7
ag3
ag2
ag8
ag11
ag9
ag8
ag9
ag5
ag11
ag9
ag2
ag10
ag9
ag6
ag7
ag6
ag9
ag9
ag10
ag3
ag6
ag4
ag5
ag4
ag6
ag9
ag3
ag7
ag4
ag4
ag5
ag9
ag10
ag7
ag8
ag9
ag8
ag9
ag8
ag11
ag6
ag9
ag6
ag10
ag7
ag4
ag10
ag6
ag4
ag7
ag4
ag2
ag4
ag4
ag7
ag10
ag8
ag6
ag5
ag2
ag10
ag9
ag4
ag2
ag8
ag8
ag10
ag10
ag5
ag4
ag8
ag2
ag8
ag11
ag9
ag8
ag4
ag5
ag6
ag3
ag10
ag6
ag9
ag2
ag7
ag11
ag4
ag11
ag6
ag7
ag3
ag11
ag9
ag3
ag2
ag5
ag5
ag9
ag2
ag8
ag11
ag9
ag5
ag7
ag10
ag2
ag4
ag10
ag8
ag6
ag10
ag10
ag8
ag8
ag9
ag10
ag5
ag3
ag10
ag6
ag3
ag10
ag5
ag7
ag7
ag6
ag2
ag3
ag11
ag6
ag2
ag5
ag9
ag3
ag11
ag8
ag3
ag11
ag8
ag2
ag10
ag5
ag11
ag3
ag10
ag3
ag11
ag3
ag8
ag8
ag2
ag9
ag6
ag9
ag11
ag6
ag11
ag3
ag2
ag6
ag8
ag3
ag5
ag10
ag7
ag6
ag9
ag2
ag3
ag8
ag9
ag4
ag4
ag3
ag10
ag9
ag2
ag11
ag2
ag9
ag6
ag11
ag7
ag6
ag11
ag9
ag10
ag11
ag10
ag4
ag5
ag9
ag3
ag3
ag8
ag9
ag7
ag8
ag11
ag4
ag6
ag4
ag2
ag11
ag6
ag9
ag4
ag11
ag6
ag10
ag4
ag3
ag11
ag5
ag11
ag8
ag7
ag4
ag6
ag3
ag5
ag3
ag2
ag5
ag7
ag5
ag3
ag8
ag2
ag9
ag2
ag7
ag6
ag3
ag9
ag3
ag6
ag6
ag11
ag5
ag6
ag6
ag8
ag11
ag5
ag9
ag11
ag7
ag11
ag8
ag9
ag7
ag5
ag6
ag11
ag2
ag4
ag10
ag6
ag8
ag11
ag5
ag7
ag4
ag10
ag10
ag9
ag7
ag11
ag2
ag4
ag5
ag8
ag2
ag4
ag2
ag8
ag3
ag2
ag7
ag4
ag11
ag8
ag3
ag6
ag7
ag6
ag2
ag3
ag3
ag10
ag6
ag7
ag4
ag7
ag3
ag4
ag2
ag7
ag6
ag6
ag4
ag9
ag2
ag3
ag2
ag11
ag11
ag4
ag7
ag2
ag4
ag4
ag2
ag8
ag10
ag10
ag8
ag4
ag10
ag2
ag9
ag4
ag10
ag11
ag2
ag8
ag7
ag7
ag5
ag5
ag3
ag11
ag11
ag3
ag10
ag2
ag4
ag10
ag5
ag10
ag6
ag6
ag10
ag11
ag7
ag3
ag10
ag7
ag2
ag4
ag4
ag2
ag5
ag6
ag7
ag9
ag8
ag7
ag4
ag2
ag5
ag3
ag5
ag5
ag6
ag9
ag2
ag5
ag2
ag4
ag6
ag9
ag6
ag8
ag6
ag7
ag7
ag4
ag2
ag7
ag8
ag10
ag10
ag11
ag3
ag10
ag9
ag3
ag3
ag4
ag4
ag4
ag4
ag4
ag9
ag7
ag11
ag6
ag10
ag2
ag4
ag9
ag6
ag8
ag5
ag6
ag2
ag6
ag3
ag6
ag5
ag2
ag5
ag4
ag7
ag11
ag11
ag9
ag5
ag5
ag6
ag7
ag9
ag11
ag3
ag3
ag10
ag11
ag6
ag11
ag3
ag3
ag4
ag2
ag8
ag6
ag6
ag5
ag6
ag10
ag7
ag2
ag10
ag4
ag5
ag4
ag3
ag8
ag7
ag3
ag4
ag5
ag4
ag11
ag7
ag4
ag9
ag11
ag10
ag11
ag7
ag10
ag9
ag3
ag11
ag10
ag3
ag3
ag4
ag5
ag6
ag3
ag7
ag3
ag6
ag10
ag2
ag7
ag4
ag8
ag3
ag6
ag7
ag5
ag10
ag11
ag8
ag10
ag9
ag5
ag7
ag6
ag9
ag3
ag8
ag5
ag3
ag2
ag6
ag9
ag9
ag11
ag9
ag9
ag11
ag9
ag7
ag4
ag2
ag3
ag8
ag7
ag7
ag5
ag2
ag3
ag2
ag9
ag2
ag5
ag9
ag8
ag3
ag6
ag2
ag3
ag5
ag7
ag7
ag3
ag3
ag7
ag6
ag6
ag3
ag10
ag10
ag3
ag4
ag2
ag5
ag2
ag9
ag6
ag4
ag10
ag11
ag2
ag6
ag8
ag7
ag3
ag8
ag4
ag11
ag2
ag10
ag2
ag4
ag8
ag8
ag5
ag7
ag4
ag6
ag5
ag9
ag10
ag10
ag9
ag5
ag6
ag7
ag2
ag8
ag4
ag9
ag11
ag7
ag8
ag8
ag2
ag7
ag10
ag11
ag10
ag11
ag4
ag8
ag10
ag8
ag5
ag8
ag8
ag10
ag11
ag9
ag2
ag2
ag2
ag10
ag2
ag5
ag8
ag7
ag5
ag3
ag8
ag8
ag10
ag4
ag2
ag2
ag11
ag9
ag8
ag7
ag10
ag11
ag7
ag8
ag10
ag2
ag7
ag4
ag2
ag5
ag5
ag10
ag2
ag3
ag8
ag11
ag4
ag11
ag9
ag3
ag7
ag8
ag2
ag8
ag2
ag11
ag9
ag3
ag8
ag4
ag6
ag11
ag6
ag8
ag11
ag10
ag5
ag9
ag3
ag2
ag10
ag10
ag3
ag4
ag5
ag2
ag10
ag6
ag5
ag10
ag7
ag10
ag3
ag11
ag7
ag5
ag10
ag11
ag5
ag2
ag9
ag8
ag6
ag2
ag10
ag7
ag5
ag11
ag9
ag3
ag8
ag9
ag4
ag5
ag5
ag6
ag6
ag5
ag4
ag3
ag10
ag3
ag2
ag2
ag11
ag8
ag3
ag8
ag2
ag9
ag7
ag4
ag6
ag4
ag9
ag6
ag3
ag6
ag10
ag8
ag6
ag10
ag7
ag8
ag5
ag4
ag8
ag10
ag11
ag7
ag4
ag7
ag2
ag7
ag8
ag8
ag3
ag2
ag6
ag9
ag5
ag4
ag4
ag4
ag5
ag6
ag6
ag2
ag9
ag10
ag5
ag5
ag6
ag10
ag5
ag9
ag4
ag7
ag9
ag4
ag10
ag11
ag4
ag3
ag8
ag9
ag3
ag2
ag10
ag9
ag5
ag4
ag7
ag2
ag9
ag9
ag11
ag7
ag3
ag7
ag8
ag11
ag10
ag4
ag5
ag5
ag2
ag9
ag9
ag3
ag4
ag9
ag7
ag10
ag4
ag11
ag9
ag7
ag5
ag9
ag5
ag5
ag5
ag9
ag10
ag8
ag7
ag10
ag6
ag8
ag8
ag11
ag8
ag10
ag5
ag6
ag5
ag3
ag7
ag9
ag11
ag3
ag10
ag4
ag3
ag4
ag4
ag8
ag9
ag7
ag11
ag5
ag9
ag9
ag8
ag8
ag10
ag11
ag9
ag3
ag4
ag6
ag8
ag6
ag10
ag2
ag11
ag8
ag5
ag7
ag10
ag8
ag4
ag4
ag5
ag6
ag6
ag2
ag5
ag4
ag2
ag5
ag4
ag9
ag4
ag6
ag8
ag9
ag9
ag8
ag2
ag11
ag6
ag6
ag2
ag3
ag8
ag10
ag2
ag5
ag2
ag2
ag7
ag9
ag6
ag3
ag11
ag8
ag2
ag11
ag10
ag7
ag8
ag11
ag7
ag7
ag11
ag9
ag3
ag11
ag7
ag3
ag10
ag9
ag4
ag4
ag11
ag7
ag10
ag6
ag5
ag2
ag7
ag9
ag6
ag4
ag6
ag4
ag10
ag6
ag7
ag10
ag4
ag6
ag2
ag2
ag6
ag2
ag3
ag7
ag10
ag5
ag11
ag11
ag11
ag6
ag5
ag6
ag6
ag4
ag8
ag3
ag11
ag10
ag6
ag7
ag8
ag3
ag11
ag4
ag8
ag10
ag2
ag7
ag6
ag3
ag8
ag9
ag10
ag8
ag7
ag10
ag8
ag7
ag10
ag4
ag7
ag8
ag10
ag5
ag9
ag7
ag11
ag6
ag5
ag6
ag7
ag3
ag7
ag5
ag4
ag5
ag10
ag4
ag9
ag8
ag11
ag4
ag8
ag10
ag10
ag5
ag10
ag8
ag8
ag7
ag3
ag11
ag2
ag5
ag6
ag7
ag4
ag7
ag2
ag2
ag8
ag8
ag3
ag5
ag7
ag4
ag11
ag9
ag3
ag10
ag7
ag9
ag3
ag4
ag7
ag4
ag10
ag8
ag8
ag5
ag10
ag11
ag10
ag10
ag2
ag9
ag9
ag5
ag4
ag6
ag5
ag9
ag7
ag11
ag4
ag3
ag7
ag7
ag8
ag7
ag2
ag10
ag2
ag11
ag5
ag4
ag10
ag5
ag6
ag9
ag4
ag5
ag3
ag8
ag11
ag6
ag6
ag4
ag4
ag8
ag6
ag9
ag9
ag5
ag9
ag7
ag3
ag9
ag3
ag2
ag4
ag2
ag7
ag6
ag5
ag5
ag10
ag11
ag3
ag3
ag10
ag4
ag9
ag5
ag8
ag2
ag2
ag7
ag3
ag9
ag2
ag7
ag2
ag11
ag9
ag11
ag11
ag6
ag9
ag11
ag6
ag4
ag3
ag11
ag4
ag10
ag7
ag6
ag5
ag10
ag2
ag10
ag3
ag10
ag10
ag2
ag10
ag6
ag5
ag9
ag3
ag5
ag11
ag4
ag8
ag10
ag8
ag6
ag4
ag2
ag4
ag8
ag2
ag8
ag2
ag10
ag3
ag3
ag2
ag10
ag2
ag10
ag2
ag11
ag8
ag6
ag8
ag3
ag8
ag9
ag8
ag10
ag9
ag2
ag6
ag4
ag2
ag4
ag8
ag3
ag10
ag9
ag10
ag4
ag6
ag3
ag9
ag2
ag6
ag10
ag11
ag5
ag9
ag3
ag4
ag9
ag8
ag10
ag7
ag4
ag7
ag10
ag3
ag4
ag11
ag6
ag6
ag9
ag8
ag11
ag9
ag7
ag2
ag2
ag11
ag9
ag7
ag2
ag10
ag7
ag6
ag5
ag8
ag6
ag9
ag6
ag4
ag3
ag10
ag5
ag5
ag3
ag9
ag9
ag8
ag2
ag5
ag11
ag9
ag6
ag2
ag7
ag5
ag2
ag10
ag6
ag3
ag4
ag11
ag11
ag8
ag7
ag3
ag2
ag4
ag11
ag11
ag11
ag3
ag2
ag9
ag5
ag4
ag3
ag2
ag4
ag5
ag11
ag10
ag9
ag5
ag8
ag10
ag9
ag3
ag11
ag2
ag5
ag4
ag6
ag3
ag4
ag4
ag6
ag6
ag6
ag6
ag2
ag4
ag9
ag3
ag7
ag7
ag5
ag5
ag4
ag11
ag11
ag6
ag10
ag6
ag3
ag5
ag9
ag4
ag9
ag4
ag3
ag3
ag3
ag4
ag3
ag10
ag2
ag11
ag4
ag5
ag5
ag3
ag4
ag9
ag9
ag5
ag4
ag9
ag3
ag8
ag4
ag2
ag6
ag11
ag3
ag4
ag6
ag10
ag11
ag10
ag7
ag7
ag6
ag11
ag10
ag6
ag2
ag3
ag2
ag8
ag2
ag5
ag6
ag10
ag10
ag3
ag9
ag2
ag9
ag5
ag5
ag9
ag2
ag2
ag5
ag8
ag8
ag11
ag4
ag5
ag2
ag5
ag3
ag11
ag4
ag8
ag5
ag11
ag11
ag5
ag10
ag3
ag2
ag2
ag3
ag9
ag6
ag2
ag8
ag8
ag8
ag3
ag7
ag3
ag11
ag6
ag9
ag11
ag9
ag8
ag5
ag5
ag11
ag2
ag9
ag4
ag2
ag4
ag4
ag3
ag2
ag6
ag5
ag5
ag2
ag2
ag9
ag10
ag11
ag9
ag6
ag3
ag5
ag7
ag6
ag5
ag8
ag2
ag11
ag3
ag2
ag6
ag2
ag4
ag4
ag10
ag9
ag9
ag3
ag7
ag4
ag7
ag6
ag11
ag10
ag9
ag7
ag8
ag7
ag9
ag3
ag6
ag9
ag2
ag2
ag5
ag9
ag9
ag7
ag6
ag11
ag10
ag8
ag10
ag6
ag7
ag5
ag5
ag8
ag3
ag8
ag5
ag2
ag4
ag4
ag4
ag9
ag2
ag9
ag2
ag7
ag9
ag9
ag6
ag4
ag6
ag10
ag4
ag4
ag3
ag3
ag6
ag4
ag5
ag11
ag2
ag9
ag10
ag6
ag5
ag5
ag9
ag10
ag10
ag5
ag2
ag4
ag2
ag4
ag4
ag10
ag4
ag5
ag7
ag7
ag2
ag8
ag6
ag4
ag6
ag11
ag7
ag8
ag10
ag8
ag4
ag7
ag11
ag3
ag10
ag10
ag7
ag7
ag5
ag4
ag5
ag3
ag7
ag10
ag7
ag10
ag10
ag9
ag3
ag6
ag7
ag11
ag10
ag2
ag6
ag5
ag6
ag2
ag11
ag6
ag7
ag11
ag7
ag7
ag2
ag8
ag7
ag3
ag11
ag3
ag3
ag5
ag3
ag3
ag10
ag11
ag6
ag9
ag11
ag9
ag11
ag3
ag6
ag9
ag2
ag7
ag10
ag10
ag7
ag6
ag10
ag4
ag6
ag6
ag2
ag5
ag8
ag7
ag9
ag5
ag6
ag6
ag6
ag6
ag9
ag4
ag3
ag10
ag10
ag9
ag6
ag8
ag7
ag9
ag11
ag8
ag9
ag8
ag11
ag9
ag6
ag4
ag11
ag9
ag8
ag3
ag11
ag6
ag8
ag8
ag6
ag2
ag2
ag5
ag2
ag11
ag3
ag3
ag10
ag2
ag5
ag4
ag11
ag5
ag2
ag4
ag7
ag11
ag2
ag8
ag8
ag7
ag4
ag2
ag8
ag6
ag7
ag4
ag3
ag3
ag4
ag9
ag9
ag2
ag4
ag4
ag6
ag5
ag2
ag6
ag3
ag6
ag5
ag9
ag6
ag2
ag9
ag7
ag8
ag10
ag6
ag9
ag8
ag5
ag4
ag11
ag11
ag3
ag11
ag10
ag8
ag2
ag11
ag5
ag11
ag8
ag2
ag4
ag4
ag5
ag4
ag10
ag2
ag11
ag8
ag5
ag2
ag4
ag4
ag5
ag4
ag4
ag6
ag8
ag3
ag2
ag9
ag3
ag10
ag5
ag3
ag11
ag8
ag7
ag9
ag7
ag2
ag3
ag4
ag10
ag9
ag6
ag4
ag11
ag3
ag6
ag5
ag8
ag4
ag5
ag3
ag3
ag9
ag6
ag6
ag10
ag7
ag9
ag4
ag9
ag8
ag2
ag7
ag3
ag5
ag3
ag9
ag5
ag4
ag6
ag10
ag8
ag3
ag11
ag11
ag5
ag11
ag11
ag7
ag5
ag7
ag9
ag2
ag9
ag10
ag7
ag10
ag6
ag2
ag2
ag2
ag6
ag7
ag5
ag9
ag6
ag11
ag6
ag3
ag2
ag3
ag11
ag4
ag5
ag5
ag2
ag11
ag10
ag10
ag10
ag4
ag10
ag2
ag9
ag4
ag10
ag4
ag9
ag9
ag8
ag2
ag6
ag2
ag8
ag7
ag8
ag11
ag6
ag7
ag7
ag4
ag9
ag8
ag5
ag4
ag10
ag2
ag5
ag10
ag6
ag11
ag3
ag3
ag5
ag3
ag8
ag4
ag8
ag4
ag6
ag11
ag11
ag7
ag4
ag3
ag4
ag10
ag8
ag4
ag5
ag7
ag6
ag6
ag11
ag10
ag3
ag8
ag7
ag2
ag9
ag9
ag3
ag5
ag5
ag5
ag8
ag11
ag2
ag4
ag8
ag3
ag10
ag11
ag8
ag4
ag11
ag3
ag5
ag6
ag7
ag7
ag9
ag3
ag10
ag10
ag8
ag9
ag6
ag11
ag5
ag7
ag3
ag11
ag10
ag9
ag2
ag8
ag2
ag3
ag7
ag6
ag7
ag4
ag3
ag11
ag9
ag5
ag2
ag5
ag7
ag4
ag4
ag9
ag2
ag8
ag7
ag7
ag4
ag7
ag8
ag7
ag3
ag8
ag5
ag6
ag4
ag5
ag11
ag7
ag5
ag11
ag7
ag11
ag7
ag6
ag3
ag8
ag2
ag7
ag11
ag7
ag11
ag5
ag7
ag7
ag9
ag11
ag7
ag7
ag8
ag7
ag11
ag8
ag4
ag5
ag10
ag10
ag8
ag3
ag4
ag9
ag8
ag5
ag3
ag11
ag4
ag8
ag9
ag3
ag10
ag5
ag3
ag3
ag9
ag6
ag10
ag8
ag8
ag4
ag2
ag3
ag4
ag9
ag7
ag4
ag7
ag7
ag8
ag8
ag4
ag9
ag3
ag3
ag11
ag9
ag2
ag4
ag6
ag9
ag5
ag6
ag5
ag10
ag10
ag3
ag3
ag10
ag9
ag11
ag7
ag11
ag8
ag10
ag11
ag8
ag6
ag8
ag3
ag5
ag8
ag9
ag10
ag3
ag11
ag10
ag7
ag7
ag8
ag2
ag7
ag6
ag9
ag2
ag4
ag10
ag2
ag10
ag9
ag9
ag5
ag7
ag5
ag4
ag7
ag7
ag3
ag11
ag11
ag5
ag4
ag9
ag7
ag2
ag8
ag10
ag6
ag2
ag6
ag7
ag7
ag6
ag10
ag9
ag10
ag4
ag4
ag2
ag9
ag7
ag4
ag11
ag6
ag4
ag4
ag7
ag7
ag6
ag10
ag9
ag11
ag4
ag9
ag5
ag6
ag4
ag10
ag2
ag2
ag6
ag7
ag8
ag4
ag5
ag5
ag4
ag4
ag9
ag3
ag4
ag7
ag11
ag6
ag5
ag10
ag9
ag6
ag7
ag5
ag2
ag4
ag9
ag8
ag2
ag8
ag3
ag8
ag4
ag11
ag8
ag6
ag2
ag5
ag9
ag2
ag5
ag3
ag8
ag11
ag4
ag5
ag6
ag8
ag2
ag4
ag11
ag8
ag4
ag7
ag5
ag5
ag9
ag5
ag2
ag10
ag4
ag11
ag10
ag7
ag2
ag5
ag5
ag11
ag7
ag8
ag7
ag11
ag10
ag3
ag2
ag3
ag7
ag2
ag3
ag4
ag4
ag10
ag2
ag8
ag10
ag4
ag7
ag11
ag3
ag3
ag3
ag11
ag11
ag8
ag2
ag10
ag11
ag7
ag11
ag11
ag9
ag11
ag3
ag10
ag7
ag2
ag8
ag9
ag3
ag7
ag3
ag11
ag11
ag4
ag9
ag11
ag11
ag2
ag7
ag4
ag11
ag5
ag4
ag2
ag3
ag5
ag2
ag8
ag4
ag7
ag5
ag3
ag5
ag7
ag11
ag9
ag3
ag10
ag7
ag10
ag11
ag5
ag3
ag4
ag4
ag4
ag4
ag6
ag3
ag7
ag2
ag3
ag8
ag4
ag4
ag3
ag4
ag7
ag7
ag7
ag4
ag5
ag3
ag5
ag3
ag4
ag4
ag6
ag9
ag6
ag4
ag8
ag6
ag7
ag2
ag2
ag4
ag8
ag9
ag3
ag3
ag3
ag11
ag5
ag9
ag7
ag9
ag4
ag7
ag2
ag2
ag4
ag6
ag11
ag8
ag10
ag6
ag10
ag6
ag7
ag2
ag8
ag5
ag2
ag6
ag11
ag11
ag4
ag8
ag10
ag7
ag8
ag7
ag2
ag9
ag7
ag5
ag10
ag9
ag10
ag7
ag11
ag3
ag3
ag4
ag3
ag11
ag9
ag11
ag8
ag8
ag10
ag7
ag6
ag7
ag3
ag8
ag4
ag8
ag4
ag6
ag6
ag4
ag6
ag6
ag10
ag8
ag7
ag4
ag3
ag3
ag10
ag10
ag5
ag3
ag7
ag5
ag5
ag7
ag7
ag9
ag5
ag7
ag10
ag3
ag11
ag6
ag4
ag7
ag7
ag2
ag3
ag2
ag7
ag7
ag8
ag7
ag8
ag4
ag4
ag11
ag10
ag8
ag4
ag7
ag8
ag10
ag8
ag6
ag7
ag8
ag7
ag10
ag4
ag7
ag5
ag7
ag2
ag8
ag6
ag7
ag3
ag5
ag4
ag5
ag8
ag4
ag6
ag7
ag10
ag10
ag9
ag4
ag8
ag3
ag8
ag3
ag3
ag5
ag7
ag3
ag9
ag9
ag5
ag4
ag3
ag5
ag10
ag5
ag3
ag8
ag8
ag2
ag7
ag8
ag8
ag5
ag11
ag7
ag8
ag5
ag10
ag3
ag8
ag7
ag5
ag11
ag11
ag6
ag8
ag11
ag11
ag6
ag8
ag6
ag11
ag8
ag6
ag7
ag3
ag3
ag4
ag3
ag9
ag11
ag11
ag2
ag5
ag10
ag9
ag9
ag6
ag10
ag11
ag11
ag2
ag3
ag3
ag5
ag5
ag7
ag10
ag7
ag7
ag4
ag7
ag11
ag9
ag9
ag6
ag3
ag9
ag7
ag3
ag11
ag8
ag6
ag8
ag2
ag7
ag7
ag7
ag3
ag4
ag11
ag10
ag6
ag5
ag2
ag11
ag10
ag7
ag10
ag6
ag9
ag8
ag9
ag3
ag10
ag7
ag3
ag9
ag5
ag5
ag9
ag4
ag3
ag11
ag2
ag7
ag11
ag3
ag5
ag6
ag2
ag2
ag8
ag5
ag8
ag9
ag6
ag9
ag2
ag6
ag10
ag5
ag2
ag8
ag5
ag2
ag6
ag3
ag5
ag11
ag7
ag7
ag6
ag3
ag6
ag9
ag2
ag11
ag2
ag9
ag7
ag6
ag4
ag10
ag2
ag10
ag5
ag11
ag11
ag2
ag9
ag7
ag10
ag7
ag3
ag3
ag7
ag3
ag4
ag11
ag10
ag3
ag7
ag9
ag11
ag6
ag5
ag4
ag3
ag11
ag6
ag8
ag3
ag2
ag11
ag4
ag4
ag10
ag5
ag10
ag8
ag2
ag5
ag10
ag4
ag7
ag10
ag9
ag10
ag4
ag2
ag2
ag10
ag5
ag11
ag6
ag11
ag3
ag9
ag8
ag3
ag7
ag2
ag10
ag7
ag5
ag7
ag7
ag9
ag6
ag3
ag7
ag2
ag3
ag4
ag4
ag9
ag2
ag6
ag2
ag8
ag7
ag9
ag11
ag3
ag4
ag6
ag6
ag8
ag2
ag9
ag4
ag10
ag3
ag8
ag7
ag7
ag10
ag9
ag4
ag4
ag6
ag9
ag7
ag2
ag3
ag4
ag8
ag4
ag6
ag9
ag10
ag11
ag4
ag4
ag5
ag10
ag4
ag9
ag11
ag6
ag7
ag5
ag2
ag10
ag5
ag3
ag7
ag5
ag9
ag9
ag9
ag10
ag9
ag2
ag2
ag3
ag11
ag9
ag5
ag11
ag10
ag5
ag3
ag7
ag11
ag10
ag3
ag8
ag10
ag11
ag11
ag5
ag5
ag4
ag7
ag8
ag4
ag10
ag7
ag9
ag5
ag4
ag6
ag4
ag2
ag4
ag3
ag10
ag2
ag7
ag2
ag6
ag7
ag7
ag10
ag7
ag3
ag11
ag3
ag2
ag4
ag11
ag5
ag7
ag4
ag5
ag4
ag2
ag2
ag7
ag9
ag7
ag7
ag7
ag3
ag4
ag9
ag4
ag10
ag8
ag2
ag4
ag7
ag2
ag9
ag6
ag8
ag2
ag9
ag9
ag7
ag7
ag9
ag10
ag9
ag3
ag7
ag11
ag4
ag3
ag3
ag8
ag8
ag3
ag10
ag2
ag3
ag4
ag5
ag4
ag5
ag6
ag8
ag3
ag11
ag3
ag11
ag10
ag8
ag4
ag2
ag11
ag4
ag4
ag3
ag7
ag2
ag11
ag6
ag5
ag10
ag5
ag2
ag11
ag11
ag6
ag2
ag2
ag11
ag8
ag11
ag6
ag7
ag11
ag4
ag10
ag11
ag5
ag10
ag4
ag2
ag7
ag8
ag8
ag4
ag9
ag8
ag2
ag6
ag7
ag10
ag8
ag6
ag2
ag4
ag3
ag5
ag11
ag4
ag9
ag5
ag2
ag10
ag6
ag2
ag10
ag7
ag9
ag5
ag11
ag9
ag6
ag11
ag2
ag2
ag7
ag10
ag11
ag9
ag7
ag2
ag3
ag10
ag6
ag5
ag3
ag4
ag11
ag10
ag8
ag8
ag2
ag3
ag6
ag9
ag2
ag3
ag11
ag10
ag5
ag11
ag2
ag11
ag7
ag5
ag11
ag6
ag6
ag8
ag11
ag8
ag9
ag9
ag10
ag5
ag7
ag10
ag2
ag9
ag11
ag7
ag10
ag6
ag7
ag8
ag11
ag7
ag4
ag3
ag11
ag11
ag9
ag11
ag4
ag10
ag2
ag7
ag5
ag4
ag4
ag6
ag2
ag5
ag11
ag4
ag2
ag6
ag8
ag2
ag4
ag3
ag4
ag4
ag10
ag7
ag9
ag3
ag4
ag3
ag11
ag5
ag2
ag9
ag9
ag7
ag10
ag2
ag5
ag8
ag3
ag11
ag5
ag8
ag6
ag10
ag11
ag6
ag9
ag9
ag3
ag2
ag7
ag8
ag4
ag10
ag3
ag6
ag10
ag9
ag4
ag7
ag6
ag6
ag2
ag9
ag8
ag6
ag4
ag7
ag7
ag3
ag2
ag11
ag5
ag4
ag10
ag9
ag4
ag10
ag6
ag4
ag4
ag4
ag8
ag9
ag5
ag2
ag5
ag2
ag3
ag10
ag3
ag8
ag3
ag3
ag7
ag6
ag7
ag11
ag4
ag3
ag4
ag9
ag4
ag3
ag2
ag11
ag5
ag5
ag5
ag11
ag3
ag3
ag7
ag3
ag3
ag2
ag7
ag7
ag3
ag2
ag8
ag4
ag10
ag6
ag7
ag6
ag4
ag11
ag8
ag9
ag3
ag11
ag10
ag4
ag3
ag11
ag6
ag7
ag7
ag10
ag2
ag5
ag2
ag2
ag3
ag10
ag3
ag6
ag5
ag10
ag7
ag7
ag11
ag6
ag4
ag5
ag9
ag5
ag7
ag9
ag11
ag9
ag4
ag4
ag7
ag11
ag7
ag3
ag10
ag8
ag8
ag7
ag6
ag3
ag4
ag7
ag6
ag10
ag7
ag9
ag5
ag6
ag5
ag9
ag5
ag4
ag3
ag10
ag6
ag2
ag11
ag7
ag5
ag4
ag3
ag10
ag6
ag2
ag11
ag7
ag5
ag4
ag3
ag10
ag6
ag8
ag9
ag2
ag11
ag7
ag11
ag10
ag6
ag2
ag11
ag9
ag10
ag6
ag5
ag7
ag2
ag4
ag7
ag10
ag11
ag6
ag2
ag10
ag5
ag7
ag4
ag6
ag8
ag6
ag9
ag3
ag5
ag9
ag3
ag4
ag4
ag4
ag4
ag2
ag3
ag6
ag2
ag8
ag3
ag7
ag6
ag8
ag11
ag6
ag3
ag7
ag2
ag5
ag5
ag2
ag8
ag4
ag4
ag2
ag9
ag9
ag9
ag11
ag3
ag3
ag2
ag2
ag6
ag5
ag3
ag6
ag3
ag4
ag11
ag7
ag9
ag4
ag5
ag8
ag7
ag9
ag7
ag11
ag5
ag10
ag5
ag11
ag10
ag7
ag9
ag10
ag5
ag4
ag3
ag10
ag6
ag8
ag9
ag2
ag5
ag4
ag3
ag10
ag6
ag8
ag9
ag2
ag11
ag7
ag5
ag4
ag3
ag10
ag6
ag8
ag9
ag2
ag11
ag8
ag6
ag11
ag2
ag6
ag2
ag2
ag10
ag7
ag11
ag11
ag10
ag4
ag8
ag11
ag3
ag2
ag6
ag3
ag4
ag8
ag6
ag8
ag8
ag11
ag9
ag6
ag6
ag6
ag4
ag11
ag2
ag8
ag8
ag4
ag11
ag7
ag4
ag10
ag9
ag10
ag10
ag3
ag3
ag9
ag7
ag7
ag9
ag8
ag8
ag10
ag10
ag11
ag4
ag9
ag8
ag9
ag11
ag4
ag7
ag2
ag9
ag11
ag10
ag2
ag6
ag2
ag5
ag7
ag5
ag5
ag10
ag2
ag7
ag10
ag5
ag3
ag5
ag4
ag5
ag4
ag5
ag6
ag5
ag4
ag5
ag6
ag2
ag7
ag9
ag3
ag9
ag3
ag3
ag7
ag7
ag5
ag4
ag3
ag10
ag6
ag8
ag9
ag2
ag11
ag7
ag5
ag4
ag3
ag10
ag6
ag8
ag9
ag2
ag11
ag7
ag5
ag4
ag3
ag10
ag6
ag8
ag9
ag2
ag11
ag7
ag11
ag5
ag8
ag9
ag9
ag5
ag11
ag5
ag3
ag10
ag2
ag7
ag6
ag2
ag4
ag7
ag4
ag2
ag4
ag6
ag5
ag5
ag6
ag4
ag2
ag8
ag2
ag4
ag10
ag10
ag10
ag4
ag9
ag7
ag2
ag6
ag10
ag5
ag3
ag8
ag3
ag9
ag5
ag11
ag7
ag6
ag10
ag8
ag6
ag11
ag4
ag8
ag7
ag5
ag9
ag6
ag10
ag9
ag10
ag10
ag11
ag4
ag6
ag2
ag8
ag2
ag3
ag3
ag5
ag5
ag4
ag2
ag2
ag7
ag8
ag7
ag11
ag7
ag9
ag11
ag11
ag3
ag10
ag9
ag4
ag3
ag7
ag11
ag7
ag8
ag3
ag9
ag3
ag6
ag11
ag6
ag9
ag8
ag5
ag4
ag8
ag9
ag2
ag11
ag7
ag5
ag4
ag3
ag10
ag6
ag8
ag9
ag2
ag11
ag7
ag5
ag4
ag3
ag10
ag6
ag8
ag9
ag2
ag11
ag7
ag2
ag6
ag3
ag5
ag7
ag5
ag4
ag8
ag11
ag11
ag5
ag3
ag2
ag11
ag6
ag6
ag9
ag4
ag5
ag6
ag8
ag10
ag7
ag6
ag3
ag5
ag8
ag5
ag4
ag10
ag3
ag7
ag4
ag9
ag5
ag4
ag4
ag11
ag5
ag6
ag2
ag2
ag9
ag10
ag9
ag5
ag2
ag10
ag8
ag6
ag3
ag6
ag4
ag11
ag10
ag8
ag9
ag2
ag5
ag9
ag2
ag4
ag3
ag8
ag11
ag4
ag7
ag10
ag11
ag3
ag11
ag2
ag9
ag2
ag4
ag6
ag9
ag3
ag7
ag10
ag5
ag4
ag3
ag10
ag6
ag8
ag9
ag2
ag5
ag4
ag3
ag10
ag6
ag8
ag5
ag4
ag3
ag11
ag7
ag4
ag6
ag5
ag7
ag8
ag5
ag11
ag5
ag2
ag2
ag4
ag4
ag3
ag7
ag10
ag9
ag2
ag3
ag10
ag11
ag4
ag3
ag7
ag11
ag11
ag2
ag4
ag2
ag4
ag4
ag5
ag10
ag6
ag3
ag9
ag6
ag2
ag6
ag3
ag2
ag6
ag7
ag4
ag5
ag9
ag11
ag8
ag8
ag8
ag10
ag8
ag7
ag2
ag6
ag11
ag8
ag7
ag9
ag7
ag10
ag5
ag10
ag11
ag7
ag4
ag11
ag4
ag9
ag5
ag5
ag4
ag3
ag10
ag6
ag8
ag9
ag2
ag11
ag7
ag5
ag4
ag3
ag10
ag6
ag8
ag9
ag2
ag11
ag7
ag5
ag4
ag3
ag10
ag6
ag8
ag9
ag2
ag11
ag7
ag10
ag8
ag10
ag3
ag7
ag10
ag3
ag4
ag6
ag8
ag8
ag3
ag10
ag3
ag4
ag10
ag7
ag2
ag3
ag4
ag3
ag11
ag7
ag4
ag11
ag11
ag2
ag11
ag4
ag5
ag5
ag2
ag2
ag11
ag2
ag8
ag5
ag9
ag4
ag8
ag2
ag6
ag9
ag4
ag3
ag8
ag5
ag2
ag7
ag7
ag5
ag10
ag11
ag6
ag6
ag11
ag4
ag11
ag9
ag8
ag7
ag5
ag5
ag5
ag10
ag2
ag4
ag9
ag6
ag3
ag9
ag9
ag5
ag6
ag8
ag6
ag4
ag10
ag11
ag9
ag10
ag7
ag7
ag8
ag7
ag10
ag2
ag11
ag8
ag9
ag6
ag2
ag9
ag3
ag3
ag5
ag7
ag6
ag5
ag4
ag3
ag10
ag6
ag8
ag9
ag2
ag11
ag7
ag5
ag4
ag3
ag10
ag8
ag9
ag5
ag4
ag3
ag10
ag6
ag8
ag9
ag11
ag2
ag4
ag10
ag3
ag11
ag5
ag2
ag8
ag7
ag7
ag9
ag5
ag7
ag6
ag4
ag10
ag3
ag4
ag3
ag10
ag11
ag10
ag3
ag9
ag8
ag9
ag11
ag3
ag2
ag6
ag11
ag4
ag11
ag5
ag8
ag10
ag7
ag6
ag4
ag7
ag3
ag4
ag7
ag9
ag2
ag7
ag5
ag6
ag9
ag4
ag2
ag10
ag11
ag2
ag3
ag7
ag9
ag8
ag11
ag10
ag7
ag5
ag8
ag2
ag4
ag9
ag4
ag5
ag7
ag10
ag10
ag6
ag6
ag5
ag9
ag3
ag8
ag6
ag3
ag10
ag6
ag9
ag5
ag5
ag3
ag5
ag4
ag6
ag8
ag9
ag2
ag11
ag7
ag5
ag4
ag3
ag10
ag6
ag8
ag9
ag2
ag11
ag5
ag4
ag3
ag10
ag6
ag8
ag9
ag2
ag11
ag7
ag11
ag2
ag4
ag10
ag2
ag8
ag3
ag11
ag5
ag2
ag8
ag7
ag7
ag5
ag7
ag4
ag4
ag8
ag11
ag11
ag9
ag10
ag3
ag4
ag11
ag10
ag3
ag9
ag8
ag9
ag2
ag6
ag4
ag5
ag8
ag10
ag4
ag7
ag3
ag4
ag7
ag9
ag5
ag6
ag9
ag4
ag2
ag10
ag11
ag2
ag3
ag7
ag9
ag8
ag11
ag10
ag8
ag2
ag4
ag9
ag4
ag5
ag7
ag9
ag3
ag8
ag6
ag3
ag10
ag6
ag6
ag9
ag5
ag5
ag3
ag5
ag4
ag3
ag10
ag6
ag8
ag9
ag2
ag11
ag7
ag5
ag4
ag3
ag10
ag6
ag8
ag9
ag2
ag11
ag7
ag5
ag4
ag3
ag10
ag6
ag8
ag9
ag2
ag11
ag7
ag11
ag9
ag8
ag5
ag9
ag11
ag7
ag6
ag4
ag7
ag8
ag10
ag5
ag6
ag11
ag7
ag4
ag6
ag5
ag8
ag8
ag3
ag4
ag8
ag6
ag5
ag2
ag9
ag5
ag4
ag2
ag5
ag9
ag11
ag7
ag8
ag4
ag2
ag7
ag11
ag9
ag5
ag11
ag4
ag2
ag2
ag4
ag10
ag3
ag10
ag4
ag6
ag3
ag5
ag5
ag2
ag11
ag6
ag9
ag6
ag7
ag10
ag11
ag6
ag2
ag3
ag8
ag9
ag10
ag9
ag7
ag9
ag10
ag3
ag3
ag6
ag9
ag7
ag5
ag3
ag8
ag8
ag4
ag10
ag10
ag7
ag2
ag11
ag2
ag3
ag3
ag8
ag2
ag7
ag11
ag3
ag4
ag10
ag4
ag10
ag5
ag4
ag3
ag10
ag6
ag8
ag9
ag2
ag11
ag7
ag5
ag4
ag3
ag10
ag6
ag8
ag9
ag2
ag11
ag7
ag5
ag4
ag3
ag10
ag6
ag8
ag9
ag2
ag11
ag7
ag4
ag3
ag9
ag8
ag10
ag5
ag2
ag5
ag6
ag4
ag6
ag10
ag9
ag2
ag3
ag10
ag4
ag3
ag4
ag3
ag7
ag9
ag5
ag4
ag10
ag5
ag3
ag2
ag8
ag2
ag9
ag3
ag7
ag4
ag7
ag5
ag9
ag5
ag9
ag5
ag3
ag5
ag9
ag4
ag8
ag11
ag6
ag10
ag5
ag4
ag8
ag6
ag6
ag11
ag8
ag2
ag8
ag2
ag11
ag10
ag6
ag11
ag11
ag8
ag3
ag7
ag2
ag4
ag10
ag11
ag4
ag5
ag2
ag8
ag7
ag9
ag7
ag6
ag2
ag2
ag7
ag7
ag10
ag6
ag6
ag10
ag11
ag9
ag3
ag5
ag4
ag3
ag10
ag6
ag8
ag9
ag2
ag11
ag7
ag5
ag4
ag3
ag10
ag6
ag8
ag9
ag2
ag11
ag7
ag5
ag4
ag3
ag10
ag6
ag8
ag9
ag2
ag11
ag7
ag5
ag11
ag10
ag7
ag8
ag8
ag3
ag9
ag11
ag6
ag7
ag4
ag2
ag4
ag3
ag10
ag8
ag7
ag9
ag7
ag4
ag4
ag4
ag3
ag7
ag8
ag9
ag11
ag4
ag3
ag5
ag2
ag2
ag8
ag11
ag3
ag7
ag11
ag7
ag5
ag6
ag9
ag2
ag4
ag10
ag6
ag8
ag9
ag5
ag10
ag9
ag11
ag2
ag5
ag6
ag3
ag2
ag6
ag2
ag8
ag6
ag10
ag6
ag3
ag11
ag4
ag8
ag4
ag3
ag5
ag3
ag8
ag9
ag6
ag10
ag5
ag5
ag5
ag10
ag10
ag8
ag2
ag5
ag9
ag6
ag11
ag11
ag9
ag10
ag6
ag9
ag7
ag7
ag11
ag3
ag2
ag2
ag4
ag5
ag4
ag3
ag10
ag6
ag8
ag9
ag2
ag11
ag7
ag5
ag4
ag3
ag10
ag6
ag8
ag9
ag2
ag11
ag5
ag4
ag3
ag10
ag6
ag8
ag9
ag2
ag11
ag3
ag4
ag2
ag3
ag8
ag5
ag11
ag5
ag3
ag2
ag11
ag11
ag10
ag9
ag5
ag3
ag2
ag9
ag9
ag4
ag3
ag11
ag11
ag2
ag2
ag6
ag2
ag2
ag10
ag2
ag6
ag8
ag6
ag10
ag10
ag11
ag6
ag4
ag4
ag7
ag2
ag6
ag10
ag2
ag10
ag10
ag5
ag3
ag8
ag8
ag9
ag9
ag10
ag8
ag3
ag8
ag7
ag7
ag11
ag6
ag4
ag5
ag9
ag5
ag7
ag9
ag11
ag11
ag8
ag9
ag4
ag4
ag7
ag11
ag7
ag3
ag10
ag8
ag8
ag7
ag6
ag3
ag4
ag7
ag10
ag7
ag3
ag5
ag9
ag5
ag6
ag5
ag5
ag4
ag3
ag10
ag6
ag2
ag11
ag7
ag5
ag4
ag3
ag10
ag2
ag11
ag7
ag5
ag4
ag3
ag10
ag6
ag2
ag11
ag7
ag2
ag10
ag5
ag10
ag4
ag11
ag2
ag9
ag6
ag5
ag3
ag9
ag11
ag10
ag3
ag11
ag4
ag3
ag5
ag2
ag4
ag5
ag6
ag6
ag8
ag11
ag5
ag9
ag3
ag10
ag4
ag8
ag4
ag11
ag8
ag7
ag6
ag5
ag2
ag8
ag11
ag11
ag10
ag11
ag7
ag3
ag9
ag3
ag8
ag10
ag4
ag2
ag10
ag7
ag4
ag7
ag7
ag9
ag5
ag10
ag7
ag3
ag11
ag4
ag6
ag10
ag8
ag3
ag7
ag3
ag8
ag11
ag7
ag8
ag5
ag4
ag3
ag6
ag8
ag9
ag5
ag4
ag3
ag10
ag6
ag8
ag9
ag2
ag4
ag3
ag10
ag6
ag8
ag4
ag5
ag6
ag8
ag9
ag9
ag10
ag6
ag6
ag3
ag11
ag4
ag5
ag9
ag6
ag7
ag2
ag3
ag10
ag10
ag7
ag3
ag5
ag7
ag10
ag10
ag7
ag4
ag8
ag3
ag10
ag2
ag2
ag11
ag6
ag5
ag3
ag6
ag5
ag3
ag6
ag2
ag11
ag5
ag2
ag5
ag9
ag7
ag10
ag3
ag11
ag9
ag5
ag8
ag2
ag8
ag4
ag5
ag11
ag4
ag9
ag2
ag3
ag7
ag2
ag7
ag8
ag11
ag9
ag3
ag9
ag3
ag11
ag4
ag2
ag8
ag5
ag4
ag4
ag10
ag11
ag6
ag7
ag4
ag11
ag9
ag11
ag7
ag5
ag4
ag3
ag10
ag6
ag8
ag9
ag2
ag11
ag7
ag5
ag4
ag3
ag10
ag6
ag2
ag11
ag7
ag5
ag4
ag2
ag11
ag7
ag7
ag11
ag7
ag11
ag6
ag4
ag2
ag2
ag10
ag10
ag2
ag9
ag9
ag9
ag4
ag7
ag5
ag4
ag2
ag9
ag10
ag3
ag4
ag2
ag4
ag10
ag7
ag4
ag2
ag9
ag11
ag6
ag4
ag6
ag10
ag9
ag7
ag9
ag4
ag6
ag6
ag2
ag3
ag6
ag6
ag5
ag4
ag3
ag10
ag6
ag8
ag9
ag2
ag11
ag7
ag5
ag4
ag3
ag10
ag6
ag8
ag9
ag7
ag5
ag4
ag3
ag10
ag6
ag2
ag11
ag4
ag10
ag8
ag4
ag2
ag2
ag3
ag4
ag6
ag11
ag10
ag6
ag6
ag10
ag7
ag2
ag6
ag4
ag3
ag10
ag8
ag7
ag4
ag9
ag5
ag4
ag5
ag5
ag3
ag11
ag2
ag4
ag4
ag6
ag5
ag6
ag2
ag10
ag9
ag11
ag5
ag10
ag2
ag6
ag5
ag9
ag7
ag3
ag9
ag8
ag11
ag9
ag7
ag5
ag6
ag5
ag9
ag4
ag7
ag3
ag5
ag7
ag8
ag4
ag10
ag2
ag9
ag7
ag10
ag5
ag3
ag3
ag5
ag4
ag3
ag10
ag6
ag8
ag9
ag2
ag11
ag7
ag5
ag4
ag3
ag10
ag6
ag8
ag9
ag2
ag11
ag7
ag5
ag4
ag3
ag10
ag6
ag8
ag9
ag2
ag11
ag7
ag3
ag4
ag2
ag3
ag8
ag5
ag11
ag5
ag3
ag2
ag11
ag11
ag10
ag5
ag9
ag5
ag3
ag2
ag9
ag9
ag4
ag3
ag11
ag11
ag2
ag2
ag6
ag2
ag2
ag10
ag2
ag6
ag8
ag6
ag10
ag10
ag11
ag6
ag8
ag6
ag4
ag4
ag7
ag2
ag6
ag10
ag2
ag10
ag10
ag5
ag3
ag8
ag8
ag9
ag10
ag4
ag8
ag3
ag8
ag7
ag7
ag11
ag6
ag4
ag5
ag9
ag5
ag7
ag9
ag11
ag11
ag8
ag9
ag4
ag4
ag7
ag11
ag7
ag3
ag10
ag8
ag8
ag7
ag6
ag3
ag4
ag7
ag6
ag7
ag4
ag10
ag7
ag3
ag5
ag9
ag5
ag6
ag5
ag9
ag5
ag4
ag3
ag10
ag6
ag8
ag9
ag2
ag11
ag7
ag5
ag4
ag3
ag10
ag6
ag8
ag9
ag2
ag11
ag7
ag5
ag4
ag3
ag10
ag6
ag8
ag9
ag2
ag11
ag7
ag10
ag11
ag5
ag2
ag4
ag5
ag2
ag8
ag8
ag9
ag7
ag5
ag4
ag5
ag5
ag11
ag10
ag6
ag10
ag4
ag8
ag5
ag5
ag7
ag8
ag10
ag6
ag7
ag10
ag2
ag9
ag7
ag3
ag6
ag8
ag2
ag3
ag9
ag6
ag7
ag6
ag7
ag6
ag4
ag3
ag3
ag8
ag11
ag4
ag10
ag3
ag7
ag6
ag10
ag11
ag3
ag3
ag4
ag3
ag11
ag9
ag8
ag4
ag9
ag2
ag3
ag4
ag10
ag7
ag10
ag11
ag2
ag8
ag2
ag5
ag2
ag6
ag11
ag11
ag8
ag5
ag9
ag9
ag10
ag2
ag9
ag7
ag7
ag6
ag11
ag6
ag4
ag5
ag9
ag9
ag5
ag4
ag3
ag10
ag6
ag8
ag9
ag2
ag11
ag7
ag5
ag4
ag3
ag10
ag6
ag8
ag9
ag2
ag11
ag7
ag5
ag4
ag3
ag10
ag6
ag8
ag9
ag2
ag11
ag7
ag2
ag6
ag5
ag6
ag5
ag4
ag2
ag7
ag8
ag4
ag6
ag3
ag11
ag7
ag6
ag10
ag2
ag11
ag3
ag6
ag6
ag10
ag10
ag9
ag7
ag7
ag8
ag11
ag9
ag2
ag5
ag9
ag11
ag3
ag9
ag10
ag7
ag10
ag3
ag11
ag9
ag4
ag2
ag6
ag11
ag11
ag7
ag5
ag10
ag10
ag7
ag5
ag8
ag3
ag7
ag6
ag4
ag5
ag10
ag2
ag8
ag11
ag2
ag2
ag11
ag3
ag7
ag2
ag4
ag3
ag9
ag6
ag3
ag8
ag3
ag10
ag9
ag9
ag8
ag5
ag5
ag3
ag11
ag4
ag9
ag4
ag5
ag6
ag10
ag4
ag9
ag4
ag7
ag5
ag4
ag6
ag8
ag9
ag2
ag11
ag7
ag4
ag3
ag10
ag6
ag8
ag9
ag2
ag5
ag4
ag3
ag10
ag6
ag8
ag9
ag2
ag11
ag7
ag11
ag6
ag5
ag5
ag2
ag3
ag6
ag10
ag11
ag9
ag9
ag10
ag3
ag9
ag10
ag10
ag5
ag4
ag6
ag2
ag11
ag5
ag10
ag4
ag7
ag5
ag4
ag7
ag4
ag3
ag2
ag5
ag4
ag10
ag11
ag3
ag7
ag3
ag2
ag9
ag8
ag8
ag7
ag7
ag11
ag3
ag7
ag4
ag10
ag3
ag10
ag6
ag10
ag4
ag7
ag5
ag7
ag10
ag9
ag11
ag2
ag5
ag4
ag5
ag8
ag11
ag3
ag2
ag2
ag5
ag4
ag3
ag10
ag6
ag8
ag9
ag2
ag11
ag7
ag5
ag4
ag3
ag10
ag6
ag8
ag9
ag2
ag11
ag7
ag5
ag4
ag3
ag10
ag6
ag8
ag9
ag2
ag11
ag7
ag4
ag2
ag6
ag11
ag4
ag8
ag9
ag8
ag2
ag3
ag11
ag9
ag10
ag10
ag11
ag9
ag8
ag6
ag5
ag7
ag4
ag2
ag3
ag7
ag4
ag8
ag4
ag10
ag3
ag3
ag10
ag5
ag9
ag6
ag10
ag2
ag9
ag7
ag5
ag6
ag11
ag4
ag6
ag5
ag9
ag4
ag3
ag9
ag7
ag3
ag3
ag10
ag8
ag8
ag4
ag5
ag2
ag2
ag7
ag9
ag3
ag7
ag6
ag2
ag5
ag3
ag10
ag6
ag5
ag5
ag11
ag11
ag11
ag8
ag4
ag10
ag2
ag6
ag7
ag11
ag11
ag7
ag5
ag7
ag11
ag7
ag5
ag3
ag9
ag8
ag9
ag2
ag6
ag2
ag8
ag6
ag4
ag10
ag8
ag10
ag4
ag3
ag10
ag6
ag8
ag9
ag4
ag3
ag10
ag6
ag9
ag5
ag4
ag3
ag6
ag8
ag9
ag2
ag11
ag4
ag2
ag3
ag6
ag4
ag6
ag4
ag6
ag7
ag9
ag11
ag6
ag8
ag10
ag2
ag11
ag6
ag10
ag10
ag8
ag9
ag2
ag5
ag9
ag4
ag9
ag11
ag2
ag5
ag4
ag8
ag5
ag11
ag8
ag5
ag4
ag8
ag11
ag6
ag3
ag10
ag7
ag2
ag9
ag7
ag4
ag7
ag5
ag9
ag2
ag4
ag3
ag10
ag7
ag3
ag6
ag8
ag8
ag10
ag2
ag8
ag10
ag4
ag11
ag3
ag3
ag10
ag5
ag3
ag7
ag6
ag7
ag2
ag5
ag3
ag2
ag6
ag7
ag7
ag3
ag8
ag7
ag11
ag10
ag11
ag9
ag2
ag5
ag5
ag4
ag3
ag10
ag6
ag8
ag9
ag2
ag11
ag7
ag5
ag4
ag3
ag10
ag6
ag8
ag9
ag2
ag11
ag7
ag5
ag4
ag3
ag10
ag6
ag8
ag9
ag2
ag11
ag7
ag5
ag5
ag2
ag3
ag9
ag8
ag8
ag10
ag2
ag11
ag9
ag9
ag9
ag9
ag6
ag10
ag11
ag11
ag10
ag5
ag4
ag7
ag5
ag8
ag6
ag4
ag7
ag4
ag3
ag2
ag5
ag4
ag10
ag11
ag3
ag7
ag3
ag2
ag6
ag3
ag9
ag8
ag8
ag7
ag7
ag4
ag4
ag8
ag2
ag9
ag11
ag3
ag7
ag6
ag10
ag4
ag7
ag5
ag7
ag10
ag9
ag11
ag2
ag5
ag4
ag5
ag8
ag11
ag3
ag2
ag2
ag5
ag4
ag3
ag10
ag6
ag8
ag9
ag2
ag11
ag7
ag5
ag4
ag3
ag10
ag6
ag8
ag11
ag7
ag5
ag4
ag3
ag10
ag6
ag8
ag9
ag2
ag11
ag7
ag3
ag4
ag3
ag4
ag10
ag7
ag7
ag11
ag8
ag10
ag2
ag5
ag2
ag2
ag8
ag2
ag7
ag7
ag6
ag2
ag5
ag10
ag6
ag4
ag8
ag11
ag4
ag6
ag11
ag6
ag4
ag11
ag9
ag9
ag6
ag9
ag5
ag8
ag8
ag10
ag10
ag8
ag2
ag3
ag8
ag7
ag9
ag7
ag3
ag9
ag3
ag4
ag3
ag5
ag11
ag10
ag11
ag10
ag5
ag11
ag2
ag6
ag7
ag8
ag5
ag7
ag2
ag5
ag5
ag6
ag9
ag5
ag7
ag4
ag9
ag3
ag2
ag9
ag11
ag10
ag8
ag3
ag4
ag11
ag10
ag11
ag9
ag4
ag5
ag3
ag4
ag6
ag5
ag4
ag3
ag10
ag6
ag8
ag9
ag2
ag11
ag7
ag5
ag4
ag3
ag10
ag6
ag8
ag9
ag2
ag11
ag7
ag5
ag4
ag3
ag10
ag6
ag8
ag9
ag2
ag11
ag7
ag2
ag9
ag6
ag2
ag9
ag3
ag10
ag6
ag11
ag2
ag11
ag9
ag7
ag11
ag10
ag3
ag3
ag11
ag6
ag11
ag8
ag9
ag8
ag5
ag3
ag5
ag4
ag4
ag3
ag7
ag9
ag11
ag3
ag4
ag5
ag9
ag8
ag3
ag7
ag2
ag8
ag10
ag7
ag10
ag2
ag4
ag11
ag10
ag11
ag4
ag7
ag8
ag8
ag5
ag4
ag4
ag7
ag11
ag3
ag9
ag5
ag6
ag8
ag5
ag10
ag4
ag11
ag9
ag2
ag8
ag7
ag7
ag10
ag5
ag10
ag4
ag6
ag6
ag5
ag6
ag7
ag5
ag4
ag3
ag10
ag8
ag9
ag2
ag11
ag5
ag4
ag3
ag10
ag8
ag9
ag2
ag11
ag7
ag5
ag4
ag3
ag10
ag8
ag9
ag2
ag11
ag7
ag7
ag2
ag5
ag7
ag5
ag4
ag8
ag11
ag11
ag5
ag7
ag10
ag3
ag2
ag11
ag6
ag9
ag4
ag5
ag6
ag7
ag6
ag3
ag5
ag8
ag5
ag4
ag9
ag7
ag10
ag3
ag7
ag4
ag9
ag5
ag4
ag4
ag11
ag2
ag2
ag9
ag10
ag9
ag5
ag2
ag3
ag6
ag4
ag2
ag5
ag9
ag2
ag4
ag3
ag8
ag11
ag4
ag11
ag3
ag11
ag2
ag9
ag11
ag2
ag4
ag9
ag3
ag7
ag10
ag5
ag4
ag3
ag10
ag6
ag8
ag9
ag2
ag11
ag7
ag5
ag4
ag3
ag10
ag6
ag8
ag9
ag2
ag11
ag7
ag5
ag4
ag3
ag10
ag6
ag8
ag9
ag2
ag11
ag7
ag11
ag7
ag8
ag2
ag5
ag10
ag4
ag9
ag11
ag6
ag4
ag8
ag9
ag6
ag3
ag2
ag11
ag4
ag10
ag6
ag10
ag6
ag2
ag3
ag5
ag8
ag5
ag4
ag7
ag3
ag10
ag3
ag10
ag8
ag8
ag2
ag11
ag6
ag7
ag7
ag2
ag4
ag4
ag7
ag5
ag2
ag11
ag10
ag6
ag11
ag9
ag10
ag11
ag5
ag7
ag9
ag3
ag4
ag5
ag4
ag5
ag9
ag3
ag10
ag11
ag7
ag5
ag2
ag3
ag10
ag6
ag8
ag8
ag3
ag11
ag8
ag6
ag9
ag9
ag9
ag2
ag7
ag4
ag11
ag3
ag4
ag8
ag10
ag6
ag2
ag7
ag6
ag5
ag5
ag5
ag4
ag3
ag10
ag6
ag8
ag9
ag2
ag11
ag7
ag5
ag4
ag3
ag10
ag6
ag8
ag9
ag2
ag11
ag7
ag5
ag4
ag3
ag10
ag6
ag8
ag9
ag7
ag5
ag4
ag10
ag4
ag8
ag4
ag3
ag6
ag7
ag3
ag6
ag9
ag11
ag5
ag4
ag4
ag7
ag3
ag9
ag9
ag11
ag2
ag6
ag3
ag7
ag2
ag5
ag3
ag4
ag5
ag10
ag9
ag5
ag4
ag3
ag10
ag6
ag8
ag9
ag2
ag11
ag7
ag5
ag4
ag3
ag10
ag6
ag8
ag9
ag2
ag11
ag7
ag5
ag4
ag3
ag10
ag6
ag8
ag9
ag2
ag11
ag7
ag11
ag9
ag8
ag7
ag2
ag5
ag3
ag10
ag6
ag10
ag11
ag8
ag4
ag8
ag3
ag10
ag5
ag4
ag3
ag4
ag10
ag3
ag9
ag8
ag10
ag5
ag2
ag3
ag2
ag6
ag9
ag6
ag5
ag8
ag7
ag7
ag11
ag7
ag8
ag10
ag4
ag2
ag6
ag2
ag9
ag8
ag6
ag5
ag5
ag9
ag9
ag3
ag5
ag9
ag10
ag2
ag2
ag6
ag6
ag10
ag7
ag3
ag11
ag7
ag9
ag5
ag7
ag8
ag10
ag11
ag11
ag2
ag4
ag6
ag5
ag6
ag11
ag8
ag3
ag10
ag7
ag5
ag4
ag7
ag4
ag8
ag4
ag2
ag6
ag11
ag9
ag3
ag4
ag9
ag11
ag11
ag5
ag4
ag3
ag10
ag6
ag2
ag11
ag7
ag5
ag4
ag3
ag10
ag6
ag9
ag2
ag11
ag7
ag5
ag4
ag3
ag10
ag6
ag2
ag11
ag7
ag4
ag6
ag8
ag10
ag10
ag5
ag7
ag8
ag6
ag10
ag5
ag11
ag6
ag9
ag2
ag5
ag2
ag2
ag4
ag9
ag7
ag4
ag10
ag9
ag3
ag10
ag11
ag3
ag10
ag11
ag7
ag8
ag11
ag11
ag2
ag4
ag2
ag4
ag4
ag5
ag10
ag6
ag3
ag9
ag6
ag2
ag6
ag3
ag2
ag6
ag3
ag7
ag3
ag2
ag7
ag3
ag4
ag5
ag9
ag8
ag10
ag6
ag11
ag8
ag7
ag9
ag7
ag5
ag9
ag10
ag5
ag11
ag4
ag9
ag5
ag5
ag4
ag3
ag10
ag6
ag8
ag9
ag2
ag5
ag4
ag3
ag10
ag6
ag2
ag11
ag7
ag5
ag4
ag3
ag10
ag6
ag2
ag3
ag8
ag4
ag9
ag6
ag10
ag7
ag7
ag5
ag7
ag2
ag4
ag9
ag6
ag10
ag9
ag3
ag5
ag7
ag11
ag9
ag8
ag2
ag5
ag5
ag4
ag2
ag6
ag10
ag3
ag6
ag4
ag10
ag2
ag9
ag6
ag2
ag2
ag2
ag7
ag11
ag6
ag10
ag11
ag3
ag11
ag10
ag8
ag11
ag5
ag8
ag6
ag2
ag4
ag10
ag4
ag2
ag7
ag9
ag3
ag5
ag7
ag4
ag2
ag10
ag10
ag7
ag4
ag9
ag6
ag10
ag7
ag11
ag3
ag4
ag11
ag9
ag6
ag4
ag8
ag8
ag9
ag8
ag5
ag4
ag3
ag10
ag6
ag8
ag9
ag2
ag11
ag7
ag5
ag4
ag3
ag10
ag6
ag8
ag9
ag2
ag11
ag7
ag5
ag4
ag3
ag10
ag6
ag8
ag9
ag2
ag11
ag7
ag9
ag7
ag2
ag5
ag3
ag10
ag6
ag10
ag11
ag8
ag4
ag10
ag5
ag4
ag3
ag4
ag10
ag3
ag5
ag2
ag3
ag9
ag6
ag5
ag8
ag7
ag7
ag11
ag7
ag8
ag10
ag4
ag2
ag6
ag2
ag5
ag5
ag9
ag9
ag9
ag10
ag2
ag6
ag3
ag11
ag7
ag11
ag2
ag4
ag6
ag5
ag6
ag11
ag8
ag3
ag10
ag7
ag5
ag4
ag7
ag4
ag8
ag4
ag2
ag9
ag4
ag3
ag4
ag9
ag11
ag5
ag4
ag3
ag10
ag6
ag8
ag9
ag2
ag11
ag7
ag5
ag4
ag3
ag10
ag6
ag8
ag9
ag2
ag11
ag5
ag4
ag3
ag10
ag8
ag9
ag2
ag11
ag4
ag5
ag6
ag8
ag9
ag9
ag10
ag6
ag6
ag3
ag11
ag4
ag5
ag9
ag6
ag7
ag2
ag3
ag7
ag3
ag5
ag7
ag10
ag10
ag7
ag4
ag8
ag3
ag10
ag4
ag9
ag2
ag10
ag2
ag11
ag6
ag5
ag3
ag6
ag5
ag3
ag6
ag2
ag11
ag5
ag2
ag5
ag9
ag7
ag10
ag3
ag6
ag11
ag9
ag5
ag8
ag2
ag8
ag4
ag5
ag11
ag4
ag9
ag2
ag3
ag7
ag2
ag7
ag8
ag9
ag8
ag3
ag9
ag3
ag11
ag4
ag2
ag8
ag8
ag2
ag10
ag8
ag5
ag4
ag4
ag10
ag11
ag6
ag7
ag6
ag8
ag4
ag11
ag9
ag11
ag7
ag5
ag4
ag3
ag10
ag6
ag8
ag9
ag2
ag11
ag7
ag5
ag4
ag3
ag10
ag6
ag8
ag9
ag2
ag11
ag7
ag5
ag4
ag3
ag10
ag6
ag8
ag9
ag2
ag11
ag7
ag10
ag8
ag10
ag3
ag7
ag10
ag3
ag4
ag6
ag8
ag8
ag3
ag10
ag3
ag4
ag10
ag7
ag2
ag3
ag4
ag3
ag11
ag7
ag4
ag11
ag11
ag2
ag11
ag4
ag5
ag5
ag9
ag2
ag2
ag11
ag2
ag8
ag5
ag9
ag4
ag8
ag2
ag6
ag9
ag4
ag3
ag8
ag5
ag2
ag7
ag7
ag5
ag10
ag6
ag6
ag11
ag6
ag4
ag11
ag9
ag8
ag7
ag5
ag5
ag5
ag10
ag2
ag4
ag9
ag6
ag9
ag5
ag6
ag8
ag6
ag4
ag10
ag11
ag9
ag10
ag7
ag7
ag8
ag7
ag10
ag2
ag11
ag8
ag9
ag6
ag2
ag9
ag3
ag3
ag5
ag7
ag6
ag5
ag4
ag3
ag10
ag6
ag8
ag9
ag2
ag11
ag7
ag5
ag4
ag3
ag10
ag6
ag8
ag9
ag2
ag11
ag7
ag5
ag4
ag3
ag10
ag6
ag8
ag9
ag2
ag11
ag7
ag9
ag6
ag3
ag9
ag6
ag2
ag8
ag8
ag6
ag2
ag3
ag7
ag10
ag7
ag10
ag11
ag3
ag5
ag7
ag8
ag9
ag5
ag4
ag5
ag9
ag8
ag10
ag8
ag10
ag11
ag5
ag5
ag10
ag6
ag4
ag8
ag10
ag5
ag11
ag10
ag5
ag9
ag3
ag2
ag11
ag4
ag2
ag4
ag10
ag11
ag8
ag6
ag3
ag5
ag7
ag2
ag9
ag2
ag6
ag4
ag9
ag3
ag9
ag2
ag4
ag7
ag11
ag5
ag9
ag7
ag6
ag7
ag7
ag9
ag3
ag10
ag2
ag4
ag7
ag3
ag3
ag8
ag10
ag2
ag11
ag5
ag4
ag3
ag10
ag6
ag2
ag11
ag7
ag5
ag4
ag3
ag10
ag6
ag2
ag11
ag7
ag5
ag4
ag2
ag11
ag7
ag11
ag7
ag3
ag9
ag4
ag10
ag8
ag6
ag11
ag3
ag9
ag6
ag10
ag6
ag8
ag7
ag3
ag5
ag10
ag7
ag6
ag7
ag2
ag10
ag11
ag2
ag6
ag6
ag7
ag11
ag8
ag11
ag3
ag9
ag9
ag3
ag10
ag4
ag10
ag3
ag2
ag10
ag4
ag7
ag5
ag4
ag4
ag10
ag8
ag5
ag2
ag11
ag4
ag8
ag4
ag6
ag9
ag5
ag5
ag6
ag7
ag4
ag9
ag9
ag7
ag5
ag2
ag9
ag4
ag4
ag5
ag4
ag3
ag10
ag6
ag2
ag3
ag10
ag6
ag8
ag9
ag2
ag5
ag4
ag3
ag2
ag11
ag9
ag10
ag7
ag2
ag4
ag7
ag10
ag7
ag9
ag4
ag2
ag3
ag6
ag6
ag8
ag2
ag5
ag5
ag4
ag9
ag9
ag11
ag3
ag2
ag2
ag3
ag6
ag3
ag4
ag9
ag4
ag5
ag9
ag7
ag11
ag10
ag7
ag9
ag10
ag5
ag4
ag3
ag10
ag6
ag8
ag9
ag2
ag11
ag7
ag5
ag4
ag3
ag10
ag6
ag8
ag9
ag2
ag11
ag7
ag5
ag4
ag3
ag10
ag6
ag8
ag9
ag2
ag11
ag7
ag4
ag9
ag11
ag7
ag7
ag5
ag4
ag3
ag6
ag6
ag10
ag2
ag6
ag6
ag6
ag5
ag10
ag11
ag2
ag8
ag11
ag3
ag4
ag2
ag8
ag10
ag11
ag8
ag3
ag8
ag4
ag4
ag9
ag3
ag4
ag10
ag11
ag9
ag6
ag3
ag9
ag3
ag8
ag8
ag5
ag3
ag11
ag5
ag9
ag11
ag4
ag2
ag7
ag4
ag7
ag3
ag9
ag2
ag9
ag9
ag11
ag2
ag6
ag7
ag3
ag4
ag10
ag10
ag5
ag8
ag8
ag11
ag5
ag10
ag2
ag7
ag2
ag5
ag3
ag2
ag7
ag4
ag2
ag11
ag5
ag10
ag8
ag10
ag9
ag5
ag4
ag3
ag10
ag6
ag8
ag9
ag2
ag11
ag7
ag5
ag4
ag3
ag10
ag6
ag8
ag9
ag2
ag11
ag7
ag5
ag4
ag3
ag10
ag6
ag2
ag11
ag7
ag9
ag6
ag3
ag9
ag6
ag2
ag11
ag7
ag3
ag7
ag10
ag7
ag10
ag5
ag5
ag4
ag5
ag6
ag3
ag9
ag10
ag8
ag10
ag5
ag10
ag6
ag4
ag8
ag10
ag5
ag11
ag10
ag5
ag9
ag4
ag2
ag11
ag5
ag7
ag3
ag9
ag2
ag4
ag7
ag9
ag7
ag6
ag7
ag7
ag9
ag2
ag4
ag3
ag8
ag10
ag2
ag11
ag5
ag4
ag3
ag6
ag8
ag9
ag2
ag11
ag7
ag5
ag4
ag10
ag6
ag8
ag9
ag2
ag11
ag5
ag4
ag10
ag6
ag2
ag11
ag7
ag2
ag8
ag8
ag4
ag7
ag7
ag2
ag4
ag5
ag5
ag8
ag7
ag2
ag4
ag2
ag3
ag3
ag10
ag9
ag11
ag10
ag3
ag5
ag5
ag9
ag4
ag2
ag8
ag11
ag9
ag3
ag7
ag6
ag11
ag11
ag2
ag4
ag5
ag11
ag2
ag2
ag8
ag11
ag8
ag10
ag6
ag9
ag4
ag4
ag8
ag8
ag5
ag2
ag3
ag10
ag9
ag6
ag4
ag3
ag6
ag4
ag8
ag6
ag3
ag5
ag6
ag11
ag9
ag4
ag7
ag5
ag3
ag8
ag9
ag7
ag10
ag9
ag10
ag9
ag5
ag4
ag3
ag10
ag6
ag8
ag9
ag2
ag11
ag7
ag5
ag4
ag3
ag10
ag6
ag8
ag9
ag2
ag11
ag7
ag5
ag4
ag3
ag10
ag8
ag9
ag2
ag11
ag4
ag5
ag7
ag8
ag2
ag8
ag4
ag11
ag9
ag7
ag5
ag6
ag4
ag7
ag10
ag11
ag6
ag6
ag2
ag5
ag4
ag7
ag3
ag11
ag2
ag11
ag3
ag8
ag7
ag9
ag5
ag9
ag8
ag8
ag10
ag10
ag10
ag7
ag11
ag4
ag4
ag5
ag9
ag4
ag5
ag5
ag9
ag3
ag4
ag4
ag10
ag3
ag2
ag2
ag11
ag11
ag2
ag11
ag6
ag9
ag5
ag3
ag5
ag2
ag5
ag10
ag9
ag11
ag2
ag4
ag8
ag7
ag7
ag10
ag2
ag3
ag6
ag7
ag6
ag10
ag9
ag3
ag3
ag8
ag10
ag3
ag8
ag8
ag7
ag6
ag4
ag2
ag3
ag5
ag4
ag3
ag10
ag6
ag8
ag9
ag2
ag11
ag7
ag5
ag4
ag3
ag10
ag6
ag8
ag9
ag2
ag11
ag7
ag5
ag4
ag3
ag10
ag6
ag8
ag9
ag2
ag11
ag7
ag4
ag5
ag4
ag3
ag2
ag8
ag10
ag6
ag6
ag5
ag5
ag9
ag7
ag9
ag9
ag8
ag2
ag3
ag10
ag6
ag6
ag7
ag4
ag6
ag5
ag2
ag7
ag8
ag2
ag3
ag10
ag4
ag6
ag6
ag5
ag7
ag7
ag9
ag4
ag11
ag10
ag10
ag2
ag10
ag7
ag11
ag11
ag6
ag2
ag2
ag9
ag3
ag4
ag7
ag11
ag2
ag11
ag11
ag2
ag3
ag3
ag10
ag7
ag10
ag10
ag8
ag8
ag5
ag2
ag7
ag8
ag9
ag8
ag4
ag6
ag4
ag4
ag3
ag11
ag3
ag9
ag4
ag8
ag5
ag4
ag3
ag10
ag6
ag8
ag9
ag2
ag11
ag7
ag5
ag4
ag3
ag10
ag6
ag8
ag9
ag2
ag11
ag7
ag5
ag4
ag3
ag10
ag6
ag8
ag9
ag2
ag11
ag11
ag5
ag9
ag5
ag5
ag3
ag10
ag2
ag7
ag6
ag2
ag4
ag7
ag4
ag2
ag4
ag6
ag5
ag5
ag4
ag2
ag8
ag2
ag4
ag10
ag10
ag10
ag4
ag9
ag7
ag2
ag4
ag10
ag5
ag3
ag9
ag5
ag11
ag7
ag6
ag10
ag8
ag6
ag11
ag4
ag8
ag7
ag5
ag9
ag9
ag10
ag11
ag4
ag6
ag2
ag8
ag3
ag5
ag5
ag4
ag2
ag11
ag7
ag9
ag11
ag11
ag3
ag10
ag9
ag4
ag3
ag7
ag8
ag3
ag5
ag4
ag3
ag10
ag6
ag8
ag9
ag2
ag11
ag7
ag5
ag4
ag3
ag10
ag6
ag8
ag9
ag2
ag11
ag7
ag5
ag4
ag3
ag10
ag6
ag8
ag9
ag2
ag11
ag7
ag2
ag6
ag9
ag4
ag6
ag5
ag7
ag7
ag10
ag2
ag11
ag6
ag2
ag8
ag11
ag8
ag10
ag3
ag3
ag5
ag8
ag11
ag9
ag5
ag10
ag11
ag4
ag5
ag10
ag5
ag6
ag2
ag6
ag7
ag3
ag7
ag8
ag2
ag4
ag2
ag4
ag9
ag9
ag8
ag9
ag3
ag11
ag2
ag9
ag6
ag7
ag7
ag8
ag10
ag2
ag6
ag10
ag5
ag6
ag9
ag9
ag4
ag4
ag10
ag3
ag4
ag5
ag5
ag4
ag3
ag10
ag6
ag2
ag11
ag7
ag5
ag4
ag3
ag10
ag6
ag8
ag9
ag2
ag11
ag5
ag4
ag3
ag10
ag6
ag2
ag11
ag7
ag5
ag11
ag10
ag7
ag8
ag8
ag3
ag9
ag11
ag6
ag4
ag2
ag4
ag3
ag10
ag8
ag9
ag7
ag4
ag4
ag4
ag3
ag4
ag3
ag5
ag2
ag2
ag8
ag11
ag3
ag7
ag11
ag9
ag2
ag10
ag6
ag9
ag11
ag2
ag5
ag6
ag3
ag2
ag2
ag8
ag6
ag10
ag6
ag3
ag11
ag4
ag8
ag4
ag5
ag3
ag10
ag10
ag8
ag2
ag5
ag9
ag11
ag9
ag10
ag7
ag7
ag11
ag3
ag2
ag2
ag4
ag5
ag4
ag2
ag11
ag7
ag5
ag4
ag3
ag10
ag6
ag8
ag9
ag2
ag11
ag5
ag4
ag3
ag10
ag6
ag2
ag11
ag7
ag2
ag11
ag9
ag6
ag4
ag7
ag10
ag11
ag6
ag6
ag2
ag5
ag4
ag7
ag3
ag11
ag2
ag11
ag3
ag9
ag5
ag9
ag8
ag10
ag10
ag10
ag7
ag4
ag6
ag5
ag9
ag4
ag5
ag5
ag9
ag3
ag4
ag4
ag2
ag2
ag11
ag6
ag9
ag5
ag2
ag5
ag10
ag9
ag11
ag2
ag4
ag8
ag3
ag6
ag7
ag6
ag10
ag9
ag6
ag4
ag2
ag3
ag9
ag8
ag5
ag4
ag3
ag10
ag6
ag8
ag9
ag2
ag11
ag7
ag5
ag4
ag3
ag10
ag6
ag8
ag9
a.